; ModuleID = '56/622.c'
source_filename = "56/622.c"
target datalayout = "e-m:e-p270:32:32-p271:32:32-p272:64:64-i64:64-f80:128-n8:16:32:64-S128"
target triple = "x86_64-pc-linux-gnu"

@.str = private unnamed_addr constant [3 x i8] c"%d\00", align 1

; Function Attrs: noinline nounwind uwtable
define dso_local void @main() #0 {
  %1 = alloca [10 x i32], align 16
  %2 = alloca i32, align 4
  %3 = alloca i32, align 4
  %4 = alloca i32, align 4
  %5 = bitcast [10 x i32]* %1 to i8*
  call void @llvm.memset.p0i8.i64(i8* align 16 %5, i8 0, i64 40, i1 false)
  store i32 1, i32* %2, align 4
  store i32 1, i32* %3, align 4
  %6 = call i32 (i8*, ...) @__isoc99_scanf(i8* getelementptr inbounds ([3 x i8], [3 x i8]* @.str, i64 0, i64 0), i32* %4)
  br label %7

7:                                                ; preds = %10, %0
  %8 = load i32, i32* %4, align 4
  %9 = icmp sgt i32 %8, 9
  br i1 %9, label %10, label %20

10:                                               ; preds = %7
  %11 = load i32, i32* %4, align 4
  %12 = srem i32 %11, 10
  %13 = load i32, i32* %2, align 4
  %14 = sext i32 %13 to i64
  %15 = getelementptr inbounds [10 x i32], [10 x i32]* %1, i64 0, i64 %14
  store i32 %12, i32* %15, align 4
  %16 = load i32, i32* %4, align 4
  %17 = sdiv i32 %16, 10
  store i32 %17, i32* %4, align 4
  %18 = load i32, i32* %2, align 4
  %19 = add nsw i32 %18, 1
  store i32 %19, i32* %2, align 4
  br label %7

20:                                               ; preds = %7
  %21 = load i32, i32* %4, align 4
  %22 = load i32, i32* %2, align 4
  %23 = sext i32 %22 to i64
  %24 = getelementptr inbounds [10 x i32], [10 x i32]* %1, i64 0, i64 %23
  store i32 %21, i32* %24, align 4
  store i32 1, i32* %3, align 4
  br label %25

25:                                               ; preds = %36, %20
  %26 = load i32, i32* %3, align 4
  %27 = load i32, i32* %2, align 4
  %28 = add nsw i32 %27, 1
  %29 = icmp slt i32 %26, %28
  br i1 %29, label %30, label %39

30:                                               ; preds = %25
  %31 = load i32, i32* %3, align 4
  %32 = sext i32 %31 to i64
  %33 = getelementptr inbounds [10 x i32], [10 x i32]* %1, i64 0, i64 %32
  %34 = load i32, i32* %33, align 4
  %35 = call i32 (i8*, ...) @printf(i8* getelementptr inbounds ([3 x i8], [3 x i8]* @.str, i64 0, i64 0), i32 %34)
  br label %36

36:                                               ; preds = %30
  %37 = load i32, i32* %3, align 4
  %38 = add nsw i32 %37, 1
  store i32 %38, i32* %3, align 4
  br label %25

39:                                               ; preds = %25
  ret void
}

; Function Attrs: argmemonly nounwind willreturn
declare void @llvm.memset.p0i8.i64(i8* nocapture writeonly, i8, i64, i1 immarg) #1

declare dso_local i32 @__isoc99_scanf(i8*, ...) #2

declare dso_local i32 @printf(i8*, ...) #2


!llvm.module.flags = !{!0}
!llvm.ident = !{!1}

!0 = !{i32 1, !"wchar_size", i32 4}
!1 = !{!"clang version 10.0.0-4ubuntu1 "}
