; ModuleID = 'source-C-CXX/55/622.c'
source_filename = "source-C-CXX/55/622.c"
target datalayout = "e-m:e-p270:32:32-p271:32:32-p272:64:64-i64:64-f80:128-n8:16:32:64-S128"
target triple = "x86_64-pc-linux-gnu"

@.str = private unnamed_addr constant [3 x i8] c"%d\00", align 1

; Function Attrs: nofree nounwind sspstrong uwtable
define dso_local void @main() local_unnamed_addr #0 {
  %1 = alloca [10 x i32], align 16
  %2 = alloca i32, align 4
  %3 = bitcast [10 x i32]* %1 to i8*
  call void @llvm.lifetime.start.p0i8(i64 40, i8* nonnull %3) #5
  call void @llvm.memset.p0i8.i64(i8* noundef nonnull align 16 dereferenceable(40) %3, i8 0, i64 40, i1 false)
  %4 = bitcast i32* %2 to i8*
  call void @llvm.lifetime.start.p0i8(i64 4, i8* nonnull %4) #5
  %5 = call i32 (i8*, ...) @__isoc99_scanf(i8* getelementptr inbounds ([3 x i8], [3 x i8]* @.str, i64 0, i64 0), i32* nonnull %2)
  %6 = load i32, i32* %2, align 4, !tbaa !5
  %7 = icmp sgt i32 %6, 9
  br i1 %7, label %8, label %18

8:                                                ; preds = %0, %8
  %9 = phi i64 [ %14, %8 ], [ 1, %0 ]
  %10 = phi i32 [ %13, %8 ], [ %6, %0 ]
  %11 = urem i32 %10, 10
  %12 = getelementptr inbounds [10 x i32], [10 x i32]* %1, i64 0, i64 %9
  store i32 %11, i32* %12, align 4, !tbaa !5
  %13 = udiv i32 %10, 10
  %14 = add nuw i64 %9, 1
  %15 = icmp ugt i32 %10, 99
  br i1 %15, label %8, label %16, !llvm.loop !9

16:                                               ; preds = %8
  %17 = trunc i64 %14 to i32
  store i32 %13, i32* %2, align 4, !tbaa !5
  br label %18

18:                                               ; preds = %16, %0
  %19 = phi i32 [ %13, %16 ], [ %6, %0 ]
  %20 = phi i32 [ %17, %16 ], [ 1, %0 ]
  %21 = zext i32 %20 to i64
  %22 = getelementptr inbounds [10 x i32], [10 x i32]* %1, i64 0, i64 %21
  store i32 %19, i32* %22, align 4, !tbaa !5
  %23 = call i32 @llvm.umax.i32(i32 %20, i32 1)
  %24 = add i32 %23, 1
  %25 = zext i32 %24 to i64
  br label %26

26:                                               ; preds = %18, %26
  %27 = phi i64 [ 1, %18 ], [ %31, %26 ]
  %28 = getelementptr inbounds [10 x i32], [10 x i32]* %1, i64 0, i64 %27
  %29 = load i32, i32* %28, align 4, !tbaa !5
  %30 = call i32 (i8*, ...) @printf(i8* nonnull dereferenceable(1) getelementptr inbounds ([3 x i8], [3 x i8]* @.str, i64 0, i64 0), i32 %29)
  %31 = add nuw nsw i64 %27, 1
  %32 = icmp eq i64 %31, %25
  br i1 %32, label %33, label %26, !llvm.loop !11

33:                                               ; preds = %26
  call void @llvm.lifetime.end.p0i8(i64 4, i8* nonnull %4) #5
  call void @llvm.lifetime.end.p0i8(i64 40, i8* nonnull %3) #5
  ret void
}

; Function Attrs: argmemonly mustprogress nofree nosync nounwind willreturn
declare void @llvm.lifetime.start.p0i8(i64 immarg, i8* nocapture) #1

; Function Attrs: argmemonly mustprogress nofree nounwind willreturn writeonly
declare void @llvm.memset.p0i8.i64(i8* nocapture writeonly, i8, i64, i1 immarg) #2

; Function Attrs: nofree nounwind
declare noundef i32 @__isoc99_scanf(i8* nocapture noundef readonly, ...) local_unnamed_addr #3

; Function Attrs: nofree nounwind
declare noundef i32 @printf(i8* nocapture noundef readonly, ...) local_unnamed_addr #3

; Function Attrs: argmemonly mustprogress nofree nosync nounwind willreturn
declare void @llvm.lifetime.end.p0i8(i64 immarg, i8* nocapture) #1

; Function Attrs: nofree nosync nounwind readnone speculatable willreturn
declare i32 @llvm.umax.i32(i32, i32) #4


!llvm.module.flags = !{!0, !1, !2, !3}
!llvm.ident = !{!4}

!0 = !{i32 1, !"wchar_size", i32 4}
!1 = !{i32 7, !"PIC Level", i32 2}
!2 = !{i32 7, !"PIE Level", i32 2}
!3 = !{i32 7, !"uwtable", i32 1}
!4 = !{!"clang version 13.0.0"}
!5 = !{!6, !6, i64 0}
!6 = !{!"int", !7, i64 0}
!7 = !{!"omnipotent char", !8, i64 0}
!8 = !{!"Simple C/C++ TBAA"}
!9 = distinct !{!9, !10}
!10 = !{!"llvm.loop.mustprogress"}
!11 = distinct !{!11, !10}
